target datalayout = "e-m:e-p270:32:32-p271:32:32-p272:64:64-i64:64-i128:128-f80:128-n8:16:32:64-S128"
target triple = "x86_64-pc-linux-gnu"

%struct._zend_executor_globals = type { %struct._zval_struct, %struct._zval_struct, [32 x ptr], ptr, ptr, %struct._zend_array, %struct._zend_array, ptr, i32, i32, ptr, ptr, ptr, ptr, ptr, ptr, i64, ptr, ptr, i32, i32, i64, i32, i32, i32, i8, i8, %struct.zend_atomic_bool_s, %struct.zend_atomic_bool_s, ptr, i64, ptr, ptr, %struct._zend_array, %struct._zend_array, i32, i8, %struct._zval_struct, %struct._zval_struct, %struct._zend_stack, %struct._zend_stack, %struct._zend_stack, ptr, i32, i32, i64, ptr, ptr, ptr, %struct._zend_objects_store, ptr, ptr, ptr, [3 x %struct._zend_op], ptr, i8, i8, i64, i32, i32, ptr, [16 x %struct._HashTableIterator], ptr, %union._zend_function, %struct._zend_op, %struct._zend_array, i64, %struct.zend_get_gc_buffer, ptr, ptr, ptr, i64, i8, i32, ptr, ptr, i64, %struct._zend_call_stack, i64, i64, [6 x ptr] }
%struct.zend_atomic_bool_s = type { i8 }
%struct._zval_struct = type { %union._zend_value, %union.anon, %union.anon.2 }
%union._zend_value = type { i64 }
%union.anon = type { i32 }
%union.anon.2 = type { i32 }
%struct._zend_stack = type { i32, i32, i32, ptr }
%struct._zend_objects_store = type { ptr, i32, i32, i32 }
%struct._HashTableIterator = type { ptr, i32, i32 }
%union._zend_function = type { %struct._zend_op_array }
%struct._zend_op_array = type { i8, [3 x i8], i32, ptr, ptr, ptr, i32, i32, ptr, ptr, ptr, ptr, i32, i32, i32, i32, ptr, ptr, ptr, ptr, ptr, i32, i32, ptr, ptr, ptr, i32, i32, i32, i32, ptr, ptr, [6 x ptr] }
%struct._zend_op = type { ptr, %union._znode_op, %union._znode_op, %union._znode_op, i32, i32, i8, i8, i8, i8 }
%union._znode_op = type { i32 }
%struct._zend_array = type { %struct._zend_refcounted_h, %union.anon.5, i32, %union.anon.7, i32, i32, i32, i32, i64, ptr }
%struct._zend_refcounted_h = type { i32, %union.anon.3 }
%union.anon.3 = type { i32 }
%union.anon.5 = type { i32 }
%union.anon.7 = type { ptr }
%struct.zend_get_gc_buffer = type { ptr, ptr, ptr }
%struct._zend_call_stack = type { ptr, i64 }
%struct._zend_object = type { %struct._zend_refcounted_h, i32, ptr, ptr, ptr, [1 x %struct._zval_struct] }
%struct._zend_class_entry = type { i8, ptr, %union.anon.4, i32, i32, i32, i32, ptr, ptr, ptr, %struct._zend_array, %struct._zend_array, %struct._zend_array, ptr, ptr, ptr, ptr, ptr, ptr, ptr, ptr, ptr, ptr, ptr, ptr, ptr, ptr, ptr, ptr, ptr, ptr, ptr, %union.anon.8, ptr, ptr, ptr, ptr, i32, i32, %union.anon.9, ptr, ptr, ptr, ptr, i32, ptr, ptr, %union.anon.10 }
%union.anon.4 = type { ptr }
%union.anon.8 = type { ptr }
%union.anon.9 = type { ptr }
%union.anon.10 = type { %struct.anon.11 }
%struct.anon.11 = type { ptr, i32, i32 }
%struct._zend_string = type { %struct._zend_refcounted_h, i64, i64, [1 x i8] }

@executor_globals = external global %struct._zend_executor_globals, align 8
@.str.3 = private unnamed_addr constant [10 x i8] c"serialize\00", align 1
@.str.4 = private unnamed_addr constant [45 x i8] c"%s::serialize() must return a string or NULL\00", align 1

; Function Attrs: nounwind uwtable
define i32 @zend_user_serialize(ptr noundef %0, ptr noundef %1, ptr noundef %2, ptr noundef %3) #0 {
  %5 = alloca ptr, align 8
  %6 = alloca ptr, align 8
  %7 = alloca ptr, align 8
  %8 = alloca ptr, align 8
  %9 = alloca ptr, align 8
  %10 = alloca ptr, align 8
  %11 = alloca ptr, align 8
  %12 = alloca i32, align 4
  %13 = alloca ptr, align 8
  %14 = alloca ptr, align 8
  %15 = alloca ptr, align 8
  %16 = alloca ptr, align 8
  %17 = alloca ptr, align 8
  %18 = alloca %struct._zval_struct, align 8
  %19 = alloca i32, align 4
  store ptr %0, ptr %13, align 8
  store ptr %1, ptr %14, align 8
  store ptr %2, ptr %15, align 8
  store ptr %3, ptr %16, align 8
  %20 = load ptr, ptr %13, align 8
  %21 = getelementptr inbounds %struct._zval_struct, ptr %20, i32 0, i32 0
  %22 = load ptr, ptr %21, align 8
  %23 = getelementptr inbounds %struct._zend_object, ptr %22, i32 0, i32 2
  %24 = load ptr, ptr %23, align 8
  store ptr %24, ptr %17, align 8
  %25 = load ptr, ptr %13, align 8
  %26 = getelementptr inbounds %struct._zval_struct, ptr %25, i32 0, i32 0
  %27 = load ptr, ptr %26, align 8
  %28 = load ptr, ptr %13, align 8
  %29 = getelementptr inbounds %struct._zval_struct, ptr %28, i32 0, i32 0
  %30 = load ptr, ptr %29, align 8
  %31 = getelementptr inbounds %struct._zend_object, ptr %30, i32 0, i32 2
  %32 = load ptr, ptr %31, align 8
  store ptr %27, ptr %5, align 8
  store ptr %32, ptr %6, align 8
  store ptr null, ptr %7, align 8
  store ptr @.str.3, ptr %8, align 8
  store ptr %18, ptr %9, align 8
  %33 = load ptr, ptr %5, align 8
  %34 = load ptr, ptr %6, align 8
  %35 = load ptr, ptr %7, align 8
  %36 = load ptr, ptr %8, align 8
  %37 = load ptr, ptr %8, align 8
  %38 = call i64 @strlen(ptr noundef %37) #11
  %39 = load ptr, ptr %9, align 8
  %40 = call ptr @zend_call_method(ptr noundef %33, ptr noundef %34, ptr noundef %35, ptr noundef %36, i64 noundef %38, ptr noundef %39, i32 noundef 0, ptr noundef null, ptr noundef null)
  store ptr %18, ptr %10, align 8
  %41 = load ptr, ptr %10, align 8
  %42 = getelementptr inbounds %struct._zval_struct, ptr %41, i32 0, i32 1
  %43 = load i8, ptr %42, align 8
  %44 = zext i8 %43 to i32
  %45 = icmp eq i32 %44, 0
  br i1 %45, label %49, label %46

46:                                               ; preds = %4
  %47 = load ptr, ptr getelementptr inbounds (%struct._zend_executor_globals, ptr @executor_globals, i32 0, i32 50), align 8
  %48 = icmp ne ptr %47, null
  br i1 %48, label %49, label %50

49:                                               ; preds = %46, %4
  store i32 -1, ptr %19, align 4
  br label %74

50:                                               ; preds = %46
  store ptr %18, ptr %11, align 8
  %51 = load ptr, ptr %11, align 8
  %52 = getelementptr inbounds %struct._zval_struct, ptr %51, i32 0, i32 1
  %53 = load i8, ptr %52, align 8
  %54 = zext i8 %53 to i32
  switch i32 %54, label %72 [
    i32 1, label %55
    i32 6, label %56
  ]

55:                                               ; preds = %50
  call void @zval_ptr_dtor(ptr noundef %18)
  store i32 -1, ptr %12, align 4
  br label %89

56:                                               ; preds = %50
  %57 = getelementptr inbounds %struct._zval_struct, ptr %18, i32 0, i32 0
  %58 = load ptr, ptr %57, align 8
  %59 = getelementptr inbounds %struct._zend_string, ptr %58, i32 0, i32 3
  %60 = getelementptr inbounds [1 x i8], ptr %59, i64 0, i64 0
  %61 = getelementptr inbounds %struct._zval_struct, ptr %18, i32 0, i32 0
  %62 = load ptr, ptr %61, align 8
  %63 = getelementptr inbounds %struct._zend_string, ptr %62, i32 0, i32 2
  %64 = load i64, ptr %63, align 8
  %65 = call noalias ptr @_estrndup(ptr noundef %60, i64 noundef %64)
  %66 = load ptr, ptr %14, align 8
  store ptr %65, ptr %66, align 8
  %67 = getelementptr inbounds %struct._zval_struct, ptr %18, i32 0, i32 0
  %68 = load ptr, ptr %67, align 8
  %69 = getelementptr inbounds %struct._zend_string, ptr %68, i32 0, i32 2
  %70 = load i64, ptr %69, align 8
  %71 = load ptr, ptr %15, align 8
  store i64 %70, ptr %71, align 8
  store i32 0, ptr %19, align 4
  br label %73

72:                                               ; preds = %50
  store i32 -1, ptr %19, align 4
  br label %73

73:                                               ; preds = %72, %56
  call void @zval_ptr_dtor(ptr noundef %18)
  br label %74

74:                                               ; preds = %73, %49
  %75 = load i32, ptr %19, align 4
  %76 = icmp eq i32 %75, -1
  br i1 %76, label %77, label %87

77:                                               ; preds = %74
  %78 = load ptr, ptr getelementptr inbounds (%struct._zend_executor_globals, ptr @executor_globals, i32 0, i32 50), align 8
  %79 = icmp ne ptr %78, null
  br i1 %79, label %87, label %80

80:                                               ; preds = %77
  %81 = load ptr, ptr %17, align 8
  %82 = getelementptr inbounds %struct._zend_class_entry, ptr %81, i32 0, i32 1
  %83 = load ptr, ptr %82, align 8
  %84 = getelementptr inbounds %struct._zend_string, ptr %83, i32 0, i32 3
  %85 = getelementptr inbounds [1 x i8], ptr %84, i64 0, i64 0
  %86 = call ptr (ptr, i64, ptr, ...) @zend_throw_exception_ex(ptr noundef null, i64 noundef 0, ptr noundef @.str.4, ptr noundef %85)
  br label %87

87:                                               ; preds = %80, %77, %74
  %88 = load i32, ptr %19, align 4
  store i32 %88, ptr %12, align 4
  br label %89

89:                                               ; preds = %87, %55
  %90 = load i32, ptr %12, align 4
  ret i32 %90
}