; Function Attrs: nounwind uwtable
define noundef i32 @zend_user_serialize(ptr nocapture noundef readonly %0, ptr nocapture noundef writeonly %1, ptr nocapture noundef writeonly %2, ptr nocapture readnone %3) #0 {
  %5 = alloca %struct._zval_struct, align 8
  %6 = load ptr, ptr %0, align 8
  %7 = getelementptr inbounds i8, ptr %6, i64 16
  %8 = load ptr, ptr %7, align 8
  %9 = call ptr @zend_call_method(ptr noundef %6, ptr noundef %8, ptr noundef null, ptr noundef nonnull @.str.3, i64 noundef 9, ptr noundef nonnull %5, i32 noundef 0, ptr noundef null, ptr noundef null)
  %10 = getelementptr inbounds i8, ptr %5, i64 8
  %11 = load i8, ptr %10, align 8
  %12 = icmp eq i8 %11, 0
  %13 = load ptr, ptr getelementptr inbounds (%struct._zend_executor_globals, ptr @executor_globals, i64 0, i32 50), align 8
  %14 = icmp ne ptr %13, null
  %or.cond = select i1 %12, i1 true, i1 %14
  br i1 %or.cond, label %27, label %15

15:                                               ; preds = %4
  switch i8 %11, label %26 [
    i8 1, label %16
    i8 6, label %17
  ]

16:                                               ; preds = %15
  call void @zval_ptr_dtor(ptr noundef nonnull %5) #9
  br label %36

17:                                               ; preds = %15
  %18 = load ptr, ptr %5, align 8
  %19 = getelementptr inbounds i8, ptr %18, i64 24
  %20 = getelementptr inbounds i8, ptr %18, i64 16
  %21 = load i64, ptr %20, align 8
  %22 = call noalias ptr @_estrndup(ptr noundef nonnull %19, i64 noundef %21) #9
  store ptr %22, ptr %1, align 8
  %23 = load ptr, ptr %5, align 8
  %24 = getelementptr inbounds i8, ptr %23, i64 16
  %25 = load i64, ptr %24, align 8
  store i64 %25, ptr %2, align 8
  br label %26

26:                                               ; preds = %15, %17
  %.0 = phi i32 [ 0, %17 ], [ -1, %15 ]
  call void @zval_ptr_dtor(ptr noundef nonnull %5) #9
  %.pre = load ptr, ptr getelementptr inbounds (%struct._zend_executor_globals, ptr @executor_globals, i64 0, i32 50), align 8
  br label %27

27:                                               ; preds = %4, %26
  %28 = phi ptr [ %.pre, %26 ], [ %13, %4 ]
  %.1 = phi i32 [ %.0, %26 ], [ -1, %4 ]
  %29 = icmp ne i32 %.1, -1
  %30 = icmp ne ptr %28, null
  %or.cond3 = select i1 %29, i1 true, i1 %30
  br i1 %or.cond3, label %36, label %31

31:                                               ; preds = %27
  %32 = getelementptr inbounds i8, ptr %8, i64 8
  %33 = load ptr, ptr %32, align 8
  %34 = getelementptr inbounds i8, ptr %33, i64 24
  %35 = call ptr (ptr, i64, ptr, ...) @zend_throw_exception_ex(ptr noundef null, i64 noundef 0, ptr noundef nonnull @.str.4, ptr noundef nonnull %34) #9
  br label %36

36:                                               ; preds = %27, %31, %16
  %.019 = phi i32 [ -1, %16 ], [ -1, %31 ], [ %.1, %27 ]
  ret i32 %.019
}